; Function Attrs: mustprogress nofree norecurse nosync nounwind willreturn memory(readwrite, inaccessiblemem: none) uwtable
define void @_ZN3gmx20InMemoryDeserializer6doBoolEPb(ptr nocapture noundef nonnull readonly align 8 dereferenceable(16) %0, ptr nocapture noundef writeonly %1) unnamed_addr #2 align 2 {
  %3 = getelementptr inbounds i8, ptr %0, i64 8
  %4 = load ptr, ptr %3, align 8
  %5 = getelementptr inbounds i8, ptr %4, i64 24
  %6 = load i64, ptr %5, align 8
  %7 = load i64, ptr %4, align 8
  %storemerge.in.in.in.v.i = inttoptr i64 %7 to ptr
  %storemerge.in.in.in.i = getelementptr inbounds i8, ptr %storemerge.in.in.in.v.i, i64 %6
  %storemerge.in.in.i = load i8, ptr %storemerge.in.in.in.i, align 1
  %storemerge.i = and i8 %storemerge.in.in.i, 1
  store i8 %storemerge.i, ptr %1, align 1
  %8 = load i64, ptr %5, align 8
  %9 = add i64 %8, 1
  store i64 %9, ptr %5, align 8
  ret void
}